target datalayout = "e-m:e-p270:32:32-p271:32:32-p272:64:64-i64:64-i128:128-f80:128-n8:16:32:64-S128"
target triple = "x86_64-pc-linux-gnu"

%struct.st_table = type { i8, i8, i8, i32, ptr, i64, ptr, i64, i64, ptr }
%struct.st_table_entry = type { i64, i64, i64 }

; Function Attrs: inlinehint nounwind sspstrong uwtable
define internal i64 @st_general_keys(ptr noundef %0, ptr noundef %1, i64 noundef %2) #3 {
  %4 = alloca ptr, align 8
  %5 = alloca ptr, align 8
  %6 = alloca i64, align 8
  %7 = alloca i64, align 8
  %8 = alloca i64, align 8
  %9 = alloca i64, align 8
  %10 = alloca ptr, align 8
  %11 = alloca ptr, align 8
  %12 = alloca ptr, align 8
  %13 = alloca ptr, align 8
  store ptr %0, ptr %4, align 8, !tbaa !7
  store ptr %1, ptr %5, align 8, !tbaa !35
  store i64 %2, ptr %6, align 8, !tbaa !14
  call void @llvm.lifetime.start.p0(i64 8, ptr %7) #23
  call void @llvm.lifetime.start.p0(i64 8, ptr %8) #23
  call void @llvm.lifetime.start.p0(i64 8, ptr %9) #23
  call void @llvm.lifetime.start.p0(i64 8, ptr %10) #23
  call void @llvm.lifetime.start.p0(i64 8, ptr %11) #23
  call void @llvm.lifetime.start.p0(i64 8, ptr %12) #23
  call void @llvm.lifetime.start.p0(i64 8, ptr %13) #23
  %14 = load ptr, ptr %4, align 8, !tbaa !7
  %15 = getelementptr inbounds nuw %struct.st_table, ptr %14, i32 0, i32 9
  %16 = load ptr, ptr %15, align 8, !tbaa !29
  store ptr %16, ptr %13, align 8, !tbaa !40
  %17 = load ptr, ptr %4, align 8, !tbaa !7
  %18 = getelementptr inbounds nuw %struct.st_table, ptr %17, i32 0, i32 8
  %19 = load i64, ptr %18, align 8, !tbaa !33
  store i64 %19, ptr %8, align 8, !tbaa !14
  %20 = load ptr, ptr %5, align 8, !tbaa !35
  store ptr %20, ptr %10, align 8, !tbaa !35
  %21 = load ptr, ptr %5, align 8, !tbaa !35
  %22 = load i64, ptr %6, align 8, !tbaa !14
  %23 = getelementptr i64, ptr %21, i64 %22
  store ptr %23, ptr %11, align 8, !tbaa !35
  %24 = load ptr, ptr %4, align 8, !tbaa !7
  %25 = getelementptr inbounds nuw %struct.st_table, ptr %24, i32 0, i32 7
  %26 = load i64, ptr %25, align 8, !tbaa !34
  store i64 %26, ptr %7, align 8, !tbaa !14
  br label %27

27:                                               ; preds = %52, %3
  %28 = load i64, ptr %7, align 8, !tbaa !14
  %29 = load i64, ptr %8, align 8, !tbaa !14
  %30 = icmp ult i64 %28, %29
  br i1 %30, label %31, label %55

31:                                               ; preds = %27
  %32 = load ptr, ptr %5, align 8, !tbaa !35
  %33 = load ptr, ptr %11, align 8, !tbaa !35
  %34 = icmp eq ptr %32, %33
  br i1 %34, label %35, label %36

35:                                               ; preds = %31
  br label %55

36:                                               ; preds = %31
  %37 = load ptr, ptr %13, align 8, !tbaa !40
  %38 = load i64, ptr %7, align 8, !tbaa !14
  %39 = getelementptr %struct.st_table_entry, ptr %37, i64 %38
  store ptr %39, ptr %12, align 8, !tbaa !40
  %40 = load ptr, ptr %12, align 8, !tbaa !40
  %41 = getelementptr inbounds nuw %struct.st_table_entry, ptr %40, i32 0, i32 1
  %42 = load i64, ptr %41, align 8, !tbaa !42
  store i64 %42, ptr %9, align 8, !tbaa !14
  %43 = load ptr, ptr %12, align 8, !tbaa !40
  %44 = getelementptr inbounds nuw %struct.st_table_entry, ptr %43, i32 0, i32 0
  %45 = load i64, ptr %44, align 8, !tbaa !41
  %46 = icmp eq i64 %45, -1
  br i1 %46, label %51, label %47

47:                                               ; preds = %36
  %48 = load i64, ptr %9, align 8, !tbaa !14
  %49 = load ptr, ptr %5, align 8, !tbaa !35
  %50 = getelementptr i64, ptr %49, i32 1
  store ptr %50, ptr %5, align 8, !tbaa !35
  store i64 %48, ptr %49, align 8, !tbaa !14
  br label %51

51:                                               ; preds = %47, %36
  br label %52

52:                                               ; preds = %51
  %53 = load i64, ptr %7, align 8, !tbaa !14
  %54 = add i64 %53, 1
  store i64 %54, ptr %7, align 8, !tbaa !14
  br label %27, !llvm.loop !65

55:                                               ; preds = %35, %27
  %56 = load ptr, ptr %5, align 8, !tbaa !35
  %57 = load ptr, ptr %10, align 8, !tbaa !35
  %58 = ptrtoint ptr %56 to i64
  %59 = ptrtoint ptr %57 to i64
  %60 = sub i64 %58, %59
  %61 = sdiv exact i64 %60, 8
  call void @llvm.lifetime.end.p0(i64 8, ptr %13) #23
  call void @llvm.lifetime.end.p0(i64 8, ptr %12) #23
  call void @llvm.lifetime.end.p0(i64 8, ptr %11) #23
  call void @llvm.lifetime.end.p0(i64 8, ptr %10) #23
  call void @llvm.lifetime.end.p0(i64 8, ptr %9) #23
  call void @llvm.lifetime.end.p0(i64 8, ptr %8) #23
  call void @llvm.lifetime.end.p0(i64 8, ptr %7) #23
  ret i64 %61
}

; Function Attrs: nounwind sspstrong uwtable
define dso_local i64 @rb_st_keys_check(ptr noundef %0, ptr noundef %1, i64 noundef %2, i64 noundef %3) #0 {
  %5 = alloca ptr, align 8
  %6 = alloca ptr, align 8
  %7 = alloca i64, align 8
  %8 = alloca i64, align 8
  store ptr %0, ptr %5, align 8, !tbaa !7
  store ptr %1, ptr %6, align 8, !tbaa !35
  store i64 %2, ptr %7, align 8, !tbaa !14
  store i64 %3, ptr %8, align 8, !tbaa !14
  %9 = load ptr, ptr %5, align 8, !tbaa !7
  %10 = load ptr, ptr %6, align 8, !tbaa !35
  %11 = load i64, ptr %7, align 8, !tbaa !14
  %12 = call i64 @st_general_keys(ptr noundef %9, ptr noundef %10, i64 noundef %11)
  ret i64 %12
}